; Function Attrs: nounwind uwtable
define void @Wlc_NtkPrintMemory(ptr noundef %0) local_unnamed_addr #0 {
  %2 = tail call ptr @Wlc_NtkCollectMemory(ptr noundef %0, i32 noundef 1)
  %puts = tail call i32 @puts(ptr nonnull dereferenceable(1) @str)
  tail call void @Wlc_NtkPrintNodeArray(ptr noundef %0, ptr noundef %2) #26
  %3 = getelementptr inbounds nuw i8, ptr %2, i64 8
  %4 = load ptr, ptr %3, align 8, !tbaa !3
  %.not.i = icmp eq ptr %4, null
  br i1 %.not.i, label %Vec_IntFree.exit, label %5

5:                                                ; preds = %1
  tail call void @free(ptr noundef nonnull %4) #26
  br label %Vec_IntFree.exit

Vec_IntFree.exit:                                 ; preds = %1, %5
  tail call void @free(ptr noundef nonnull %2) #26
  ret void
}